target datalayout = "e-m:e-p270:32:32-p271:32:32-p272:64:64-i64:64-i128:128-f80:128-n8:16:32:64-S128"
target triple = "x86_64-pc-linux-gnu"

%struct.CLzma2Dec = type { %struct.CLzmaDec, i32, i32, i32, i8, i32, i32, i32 }
%struct.CLzmaDec = type { %struct._CLzmaProps, ptr, ptr, ptr, i32, i32, i64, i64, i32, i32, i32, [4 x i32], i32, i32, i32, i32, i32, [20 x i8] }
%struct._CLzmaProps = type { i32, i32, i32, i32 }

; Function Attrs: nounwind uwtable
define i32 @Lzma2Dec_DecodeToBuf(ptr noundef %0, ptr noundef %1, ptr noundef %2, ptr noundef %3, ptr noundef %4, i32 noundef %5, ptr noundef %6) #0 {
  %8 = alloca i32, align 4
  %9 = alloca ptr, align 8
  %10 = alloca ptr, align 8
  %11 = alloca ptr, align 8
  %12 = alloca ptr, align 8
  %13 = alloca ptr, align 8
  %14 = alloca i32, align 4
  %15 = alloca ptr, align 8
  %16 = alloca i64, align 8
  %17 = alloca i64, align 8
  %18 = alloca i64, align 8
  %19 = alloca i64, align 8
  %20 = alloca i64, align 8
  %21 = alloca i32, align 4
  %22 = alloca i32, align 4
  store ptr %0, ptr %9, align 8
  store ptr %1, ptr %10, align 8
  store ptr %2, ptr %11, align 8
  store ptr %3, ptr %12, align 8
  store ptr %4, ptr %13, align 8
  store i32 %5, ptr %14, align 4
  store ptr %6, ptr %15, align 8
  %23 = load ptr, ptr %11, align 8
  %24 = load i64, ptr %23, align 8
  store i64 %24, ptr %16, align 8
  %25 = load ptr, ptr %13, align 8
  %26 = load i64, ptr %25, align 8
  store i64 %26, ptr %17, align 8
  %27 = load ptr, ptr %11, align 8
  store i64 0, ptr %27, align 8
  %28 = load ptr, ptr %13, align 8
  store i64 0, ptr %28, align 8
  br label %29

29:                                               ; preds = %119, %7
  %30 = load i64, ptr %17, align 8
  store i64 %30, ptr %18, align 8
  %31 = load ptr, ptr %9, align 8
  %32 = getelementptr inbounds %struct.CLzma2Dec, ptr %31, i32 0, i32 0
  %33 = getelementptr inbounds %struct.CLzmaDec, ptr %32, i32 0, i32 6
  %34 = load i64, ptr %33, align 8
  %35 = load ptr, ptr %9, align 8
  %36 = getelementptr inbounds %struct.CLzma2Dec, ptr %35, i32 0, i32 0
  %37 = getelementptr inbounds %struct.CLzmaDec, ptr %36, i32 0, i32 7
  %38 = load i64, ptr %37, align 8
  %39 = icmp eq i64 %34, %38
  br i1 %39, label %40, label %44

40:                                               ; preds = %29
  %41 = load ptr, ptr %9, align 8
  %42 = getelementptr inbounds %struct.CLzma2Dec, ptr %41, i32 0, i32 0
  %43 = getelementptr inbounds %struct.CLzmaDec, ptr %42, i32 0, i32 6
  store i64 0, ptr %43, align 8
  br label %44

44:                                               ; preds = %40, %29
  %45 = load ptr, ptr %9, align 8
  %46 = getelementptr inbounds %struct.CLzma2Dec, ptr %45, i32 0, i32 0
  %47 = getelementptr inbounds %struct.CLzmaDec, ptr %46, i32 0, i32 6
  %48 = load i64, ptr %47, align 8
  store i64 %48, ptr %20, align 8
  %49 = load i64, ptr %16, align 8
  %50 = load ptr, ptr %9, align 8
  %51 = getelementptr inbounds %struct.CLzma2Dec, ptr %50, i32 0, i32 0
  %52 = getelementptr inbounds %struct.CLzmaDec, ptr %51, i32 0, i32 7
  %53 = load i64, ptr %52, align 8
  %54 = load i64, ptr %20, align 8
  %55 = sub i64 %53, %54
  %56 = icmp ugt i64 %49, %55
  br i1 %56, label %57, label %62

57:                                               ; preds = %44
  %58 = load ptr, ptr %9, align 8
  %59 = getelementptr inbounds %struct.CLzma2Dec, ptr %58, i32 0, i32 0
  %60 = getelementptr inbounds %struct.CLzmaDec, ptr %59, i32 0, i32 7
  %61 = load i64, ptr %60, align 8
  store i64 %61, ptr %19, align 8
  store i32 0, ptr %21, align 4
  br label %67

62:                                               ; preds = %44
  %63 = load i64, ptr %20, align 8
  %64 = load i64, ptr %16, align 8
  %65 = add i64 %63, %64
  store i64 %65, ptr %19, align 8
  %66 = load i32, ptr %14, align 4
  store i32 %66, ptr %21, align 4
  br label %67

67:                                               ; preds = %62, %57
  %68 = load ptr, ptr %9, align 8
  %69 = load i64, ptr %19, align 8
  %70 = load ptr, ptr %12, align 8
  %71 = load i32, ptr %21, align 4
  %72 = load ptr, ptr %15, align 8
  %73 = call i32 @Lzma2Dec_DecodeToDic(ptr noundef %68, i64 noundef %69, ptr noundef %70, ptr noundef %18, i32 noundef %71, ptr noundef %72)
  store i32 %73, ptr %22, align 4
  %74 = load i64, ptr %18, align 8
  %75 = load ptr, ptr %12, align 8
  %76 = getelementptr inbounds i8, ptr %75, i64 %74
  store ptr %76, ptr %12, align 8
  %77 = load i64, ptr %18, align 8
  %78 = load i64, ptr %17, align 8
  %79 = sub i64 %78, %77
  store i64 %79, ptr %17, align 8
  %80 = load i64, ptr %18, align 8
  %81 = load ptr, ptr %13, align 8
  %82 = load i64, ptr %81, align 8
  %83 = add i64 %82, %80
  store i64 %83, ptr %81, align 8
  %84 = load ptr, ptr %9, align 8
  %85 = getelementptr inbounds %struct.CLzma2Dec, ptr %84, i32 0, i32 0
  %86 = getelementptr inbounds %struct.CLzmaDec, ptr %85, i32 0, i32 6
  %87 = load i64, ptr %86, align 8
  %88 = load i64, ptr %20, align 8
  %89 = sub i64 %87, %88
  store i64 %89, ptr %19, align 8
  %90 = load ptr, ptr %10, align 8
  %91 = load ptr, ptr %9, align 8
  %92 = getelementptr inbounds %struct.CLzma2Dec, ptr %91, i32 0, i32 0
  %93 = getelementptr inbounds %struct.CLzmaDec, ptr %92, i32 0, i32 2
  %94 = load ptr, ptr %93, align 8
  %95 = load i64, ptr %20, align 8
  %96 = getelementptr inbounds i8, ptr %94, i64 %95
  %97 = load i64, ptr %19, align 8
  call void @llvm.memcpy.p0.p0.i64(ptr align 1 %90, ptr align 1 %96, i64 %97, i1 false)
  %98 = load i64, ptr %19, align 8
  %99 = load ptr, ptr %10, align 8
  %100 = getelementptr inbounds i8, ptr %99, i64 %98
  store ptr %100, ptr %10, align 8
  %101 = load i64, ptr %19, align 8
  %102 = load i64, ptr %16, align 8
  %103 = sub i64 %102, %101
  store i64 %103, ptr %16, align 8
  %104 = load i64, ptr %19, align 8
  %105 = load ptr, ptr %11, align 8
  %106 = load i64, ptr %105, align 8
  %107 = add i64 %106, %104
  store i64 %107, ptr %105, align 8
  %108 = load i32, ptr %22, align 4
  %109 = icmp ne i32 %108, 0
  br i1 %109, label %110, label %112

110:                                              ; preds = %67
  %111 = load i32, ptr %22, align 4
  store i32 %111, ptr %8, align 4
  br label %120

112:                                              ; preds = %67
  %113 = load i64, ptr %19, align 8
  %114 = icmp eq i64 %113, 0
  br i1 %114, label %118, label %115

115:                                              ; preds = %112
  %116 = load i64, ptr %16, align 8
  %117 = icmp eq i64 %116, 0
  br i1 %117, label %118, label %119

118:                                              ; preds = %115, %112
  store i32 0, ptr %8, align 4
  br label %120

119:                                              ; preds = %115
  br label %29

120:                                              ; preds = %118, %110
  %121 = load i32, ptr %8, align 4
  ret i32 %121
}